target datalayout = "e-m:e-p270:32:32-p271:32:32-p272:64:64-i64:64-i128:128-f80:128-n8:16:32:64-S128"
target triple = "x86_64-pc-linux-gnu"

%class.mpz = type { i32, i8, ptr }
%class.hwf = type { double }
%class._scoped_numeral.0 = type { ptr, %class.mpz }

; Function Attrs: mustprogress nounwind uwtable
define linkonce_odr hidden void @_ZN3mpz3setEi(ptr noundef nonnull align 8 dereferenceable(16) %0, i32 noundef %1) #5 comdat align 2 {
  %3 = alloca ptr, align 8
  %4 = alloca i32, align 4
  store ptr %0, ptr %3, align 8, !tbaa !46
  store i32 %1, ptr %4, align 4, !tbaa !18
  %5 = load ptr, ptr %3, align 8
  %6 = load i32, ptr %4, align 4, !tbaa !18
  %7 = getelementptr inbounds nuw %class.mpz, ptr %5, i32 0, i32 0
  store i32 %6, ptr %7, align 8, !tbaa !48
  %8 = getelementptr inbounds nuw %class.mpz, ptr %5, i32 0, i32 1
  %9 = load i8, ptr %8, align 4
  %10 = and i8 %9, -2
  %11 = or i8 %10, 0
  store i8 %11, ptr %8, align 4
  ret void
}

; Function Attrs: mustprogress uwtable
define linkonce_odr hidden void @_ZN11mpz_managerILb0EE3setER3mpzm(ptr noundef nonnull align 8 dereferenceable(600) %0, ptr noundef nonnull align 8 dereferenceable(16) %1, i64 noundef %2) #4 comdat align 2 {
  %4 = alloca ptr, align 8
  %5 = alloca ptr, align 8
  %6 = alloca i64, align 8
  store ptr %0, ptr %4, align 8, !tbaa !8
  store ptr %1, ptr %5, align 8, !tbaa !46
  store i64 %2, ptr %6, align 8, !tbaa !14
  %7 = load ptr, ptr %4, align 8
  %8 = load i64, ptr %6, align 8, !tbaa !14
  %9 = icmp ult i64 %8, 2147483647
  br i1 %9, label %10, label %14

10:                                               ; preds = %3
  %11 = load ptr, ptr %5, align 8, !tbaa !46
  %12 = load i64, ptr %6, align 8, !tbaa !14
  %13 = trunc i64 %12 to i32
  call void @_ZN3mpz3setEi(ptr noundef nonnull align 8 dereferenceable(16) %11, i32 noundef %13)
  br label %17

14:                                               ; preds = %3
  %15 = load ptr, ptr %5, align 8, !tbaa !46
  %16 = load i64, ptr %6, align 8, !tbaa !14
  call void @_ZN11mpz_managerILb0EE12set_big_ui64ER3mpzm(ptr noundef nonnull align 8 dereferenceable(600) %7, ptr noundef nonnull align 8 dereferenceable(16) %15, i64 noundef %16)
  br label %17

17:                                               ; preds = %14, %10
  ret void
}

; Function Attrs: mustprogress nounwind uwtable
define linkonce_odr hidden noundef i64 @_ZNK3hwf7get_rawEv(ptr noundef nonnull align 8 dereferenceable(8) %0) #5 comdat align 2 {
  %2 = alloca ptr, align 8
  %3 = alloca i64, align 8
  store ptr %0, ptr %2, align 8, !tbaa !16
  %4 = load ptr, ptr %2, align 8
  call void @llvm.lifetime.start.p0(i64 8, ptr %3) #3
  %5 = getelementptr inbounds nuw %class.hwf, ptr %4, i32 0, i32 0
  call void @llvm.memcpy.p0.p0.i64(ptr align 8 %3, ptr align 8 %5, i64 8, i1 false)
  %6 = load i64, ptr %3, align 8, !tbaa !14
  call void @llvm.lifetime.end.p0(i64 8, ptr %3) #3
  ret i64 %6
}

; Function Attrs: mustprogress nounwind uwtable
define hidden noundef i64 @_Z3RAWd(double noundef %0) #5 {
  %2 = alloca double, align 8
  %3 = alloca i64, align 8
  store double %0, ptr %2, align 8, !tbaa !12
  call void @llvm.lifetime.start.p0(i64 8, ptr %3) #3
  call void @llvm.memcpy.p0.p0.i64(ptr align 8 %3, ptr align 8 %2, i64 8, i1 false)
  %4 = load i64, ptr %3, align 8, !tbaa !14
  call void @llvm.lifetime.end.p0(i64 8, ptr %3) #3
  ret i64 %4
}

; Function Attrs: mustprogress nounwind uwtable
define linkonce_odr hidden void @_ZN3mpzC2Ev(ptr noundef nonnull align 8 dereferenceable(16) %0) unnamed_addr #5 comdat align 2 {
  %2 = alloca ptr, align 8
  store ptr %0, ptr %2, align 8, !tbaa !46
  %3 = load ptr, ptr %2, align 8
  %4 = getelementptr inbounds nuw %class.mpz, ptr %3, i32 0, i32 0
  store i32 0, ptr %4, align 8, !tbaa !48
  %5 = getelementptr inbounds nuw %class.mpz, ptr %3, i32 0, i32 1
  %6 = load i8, ptr %5, align 4
  %7 = and i8 %6, -2
  %8 = or i8 %7, 0
  store i8 %8, ptr %5, align 4
  %9 = getelementptr inbounds nuw %class.mpz, ptr %3, i32 0, i32 1
  %10 = load i8, ptr %9, align 4
  %11 = and i8 %10, -3
  %12 = or i8 %11, 0
  store i8 %12, ptr %9, align 4
  %13 = getelementptr inbounds nuw %class.mpz, ptr %3, i32 0, i32 2
  store ptr null, ptr %13, align 8, !tbaa !49
  ret void
}

; Function Attrs: mustprogress nounwind uwtable
define linkonce_odr hidden noundef i32 @_ZNK11hwf_manager3expERK3hwf(ptr noundef nonnull align 8 dereferenceable(736) %0, ptr noundef nonnull align 8 dereferenceable(8) %1) #5 comdat align 2 {
  %3 = alloca ptr, align 8
  %4 = alloca ptr, align 8
  store ptr %0, ptr %3, align 8, !tbaa !3
  store ptr %1, ptr %4, align 8, !tbaa !16
  %5 = load ptr, ptr %4, align 8, !tbaa !16
  %6 = call noundef i64 @_ZNK3hwf7get_rawEv(ptr noundef nonnull align 8 dereferenceable(8) %5)
  %7 = and i64 %6, 9218868437227405312
  %8 = lshr i64 %7, 52
  %9 = sub i64 %8, 1023
  %10 = trunc i64 %9 to i32
  ret i32 %10
}

; Function Attrs: mustprogress uwtable
define linkonce_odr hidden void @_ZN11mpq_managerILb0EE3negER3mpz(ptr noundef nonnull align 8 dereferenceable(728) %0, ptr noundef nonnull align 8 dereferenceable(16) %1) #4 comdat align 2 {
  %3 = alloca ptr, align 8
  %4 = alloca ptr, align 8
  store ptr %0, ptr %3, align 8, !tbaa !10
  store ptr %1, ptr %4, align 8, !tbaa !46
  %5 = load ptr, ptr %3, align 8
  %6 = load ptr, ptr %4, align 8, !tbaa !46
  call void @_ZN11mpz_managerILb0EE3negER3mpz(ptr noundef nonnull align 8 dereferenceable(600) %5, ptr noundef nonnull align 8 dereferenceable(16) %6)
  ret void
}

; Function Attrs: mustprogress nounwind uwtable
define linkonce_odr hidden noundef zeroext i1 @_ZNK11hwf_manager3sgnERK3hwf(ptr noundef nonnull align 8 dereferenceable(736) %0, ptr noundef nonnull align 8 dereferenceable(8) %1) #5 comdat align 2 {
  %3 = alloca ptr, align 8
  %4 = alloca ptr, align 8
  store ptr %0, ptr %3, align 8, !tbaa !3
  store ptr %1, ptr %4, align 8, !tbaa !16
  %5 = load ptr, ptr %4, align 8, !tbaa !16
  %6 = call noundef i64 @_ZNK3hwf7get_rawEv(ptr noundef nonnull align 8 dereferenceable(8) %5)
  %7 = and i64 %6, -9223372036854775808
  %8 = icmp ne i64 %7, 0
  ret i1 %8
}

; Function Attrs: mustprogress uwtable
define linkonce_odr hidden void @_ZN11mpq_managerILb0EE3setER3mpzm(ptr noundef nonnull align 8 dereferenceable(728) %0, ptr noundef nonnull align 8 dereferenceable(16) %1, i64 noundef %2) #4 comdat align 2 {
  %4 = alloca ptr, align 8
  %5 = alloca ptr, align 8
  %6 = alloca i64, align 8
  store ptr %0, ptr %4, align 8, !tbaa !10
  store ptr %1, ptr %5, align 8, !tbaa !46
  store i64 %2, ptr %6, align 8, !tbaa !14
  %7 = load ptr, ptr %4, align 8
  %8 = load ptr, ptr %5, align 8, !tbaa !46
  %9 = load i64, ptr %6, align 8, !tbaa !14
  call void @_ZN11mpz_managerILb0EE3setER3mpzm(ptr noundef nonnull align 8 dereferenceable(600) %7, ptr noundef nonnull align 8 dereferenceable(16) %8, i64 noundef %9)
  ret void
}

; Function Attrs: mustprogress uwtable
define linkonce_odr hidden noundef i64 @_ZNK11hwf_manager3sigERK3hwf(ptr noundef nonnull align 8 dereferenceable(736) %0, ptr noundef nonnull align 8 dereferenceable(8) %1) #4 comdat align 2 {
  %3 = alloca ptr, align 8
  %4 = alloca ptr, align 8
  store ptr %0, ptr %3, align 8, !tbaa !3
  store ptr %1, ptr %4, align 8, !tbaa !16
  %5 = load ptr, ptr %4, align 8, !tbaa !16
  %6 = call noundef i64 @_ZNK3hwf7get_rawEv(ptr noundef nonnull align 8 dereferenceable(8) %5)
  %7 = and i64 %6, 4503599627370495
  ret i64 %7
}

; Function Attrs: mustprogress nounwind uwtable
define linkonce_odr hidden noundef nonnull align 8 dereferenceable(16) ptr @_ZN15_scoped_numeralI11mpz_managerILb0EEEcvR3mpzEv(ptr noundef nonnull align 8 dereferenceable(24) %0) #5 comdat align 2 {
  %2 = alloca ptr, align 8
  store ptr %0, ptr %2, align 8, !tbaa !71
  %3 = load ptr, ptr %2, align 8
  %4 = getelementptr inbounds nuw %class._scoped_numeral.0, ptr %3, i32 0, i32 1
  ret ptr %4
}

; Function Attrs: mustprogress nounwind uwtable
define hidden noundef zeroext i1 @_ZN11hwf_manager9is_normalERK3hwf(ptr noundef nonnull align 8 dereferenceable(736) %0, ptr noundef nonnull align 8 dereferenceable(8) %1) #5 align 2 {
  %3 = alloca ptr, align 8
  %4 = alloca ptr, align 8
  %5 = alloca i64, align 8
  store ptr %0, ptr %3, align 8, !tbaa !3
  store ptr %1, ptr %4, align 8, !tbaa !16
  call void @llvm.lifetime.start.p0(i64 8, ptr %5) #3
  %6 = load ptr, ptr %4, align 8, !tbaa !16
  %7 = getelementptr inbounds nuw %class.hwf, ptr %6, i32 0, i32 0
  %8 = load double, ptr %7, align 8, !tbaa !20
  %9 = call noundef i64 @_Z3RAWd(double noundef %8)
  %10 = and i64 %9, 9218868437227405312
  store i64 %10, ptr %5, align 8, !tbaa !14
  %11 = load i64, ptr %5, align 8, !tbaa !14
  %12 = icmp ne i64 %11, 0
  br i1 %12, label %13, label %16

13:                                               ; preds = %2
  %14 = load i64, ptr %5, align 8, !tbaa !14
  %15 = icmp ne i64 %14, 9218868437227405312
  br label %16

16:                                               ; preds = %13, %2
  %17 = phi i1 [ false, %2 ], [ %15, %13 ]
  call void @llvm.lifetime.end.p0(i64 8, ptr %5) #3
  ret i1 %17
}

; Function Attrs: mustprogress uwtable
define linkonce_odr hidden void @_ZN15_scoped_numeralI11mpz_managerILb0EEEC2ERS1_(ptr noundef nonnull align 8 dereferenceable(24) %0, ptr noundef nonnull align 8 dereferenceable(600) %1) unnamed_addr #4 comdat align 2 {
  %3 = alloca ptr, align 8
  %4 = alloca ptr, align 8
  store ptr %0, ptr %3, align 8, !tbaa !71
  store ptr %1, ptr %4, align 8, !tbaa !8
  %5 = load ptr, ptr %3, align 8
  %6 = getelementptr inbounds nuw %class._scoped_numeral.0, ptr %5, i32 0, i32 0
  %7 = load ptr, ptr %4, align 8, !tbaa !8
  store ptr %7, ptr %6, align 8, !tbaa !8
  %8 = getelementptr inbounds nuw %class._scoped_numeral.0, ptr %5, i32 0, i32 1
  call void @_ZN3mpzC2Ev(ptr noundef nonnull align 8 dereferenceable(16) %8)
  ret void
}

; Function Attrs: mustprogress uwtable
define hidden void @_ZN11hwf_manager11to_rationalERK3hwfR11mpq_managerILb0EER3mpq(ptr noundef nonnull align 8 dereferenceable(736) %0, ptr noundef nonnull align 8 dereferenceable(8) %1, ptr noundef nonnull align 8 dereferenceable(728) %2, ptr noundef nonnull align 8 dereferenceable(32) %3) #4 align 2 personality ptr @__gxx_personality_v0 {
  %5 = alloca ptr, align 8
  %6 = alloca ptr, align 8
  %7 = alloca ptr, align 8
  %8 = alloca ptr, align 8
  %9 = alloca %class._scoped_numeral.0, align 8
  %10 = alloca %class._scoped_numeral.0, align 8
  %11 = alloca ptr, align 8
  %12 = alloca i32, align 4
  %13 = alloca i32, align 4
  store ptr %0, ptr %5, align 8, !tbaa !3
  store ptr %1, ptr %6, align 8, !tbaa !16
  store ptr %2, ptr %7, align 8, !tbaa !10
  store ptr %3, ptr %8, align 8, !tbaa !26
  %14 = load ptr, ptr %5, align 8
  call void @llvm.lifetime.start.p0(i64 24, ptr %9) #3
  %15 = load ptr, ptr %7, align 8, !tbaa !10
  call void @_ZN15_scoped_numeralI11mpz_managerILb0EEEC2ERS1_(ptr noundef nonnull align 8 dereferenceable(24) %9, ptr noundef nonnull align 8 dereferenceable(600) %15)
  call void @llvm.lifetime.start.p0(i64 24, ptr %10) #3
  %16 = load ptr, ptr %7, align 8, !tbaa !10
  invoke void @_ZN15_scoped_numeralI11mpz_managerILb0EEEC2ERS1_(ptr noundef nonnull align 8 dereferenceable(24) %10, ptr noundef nonnull align 8 dereferenceable(600) %16)
          to label %17 unwind label %30

17:                                               ; preds = %4
  %18 = load ptr, ptr %6, align 8, !tbaa !16
  %19 = invoke noundef zeroext i1 @_ZN11hwf_manager9is_normalERK3hwf(ptr noundef nonnull align 8 dereferenceable(736) %14, ptr noundef nonnull align 8 dereferenceable(8) %18)
          to label %20 unwind label %34

20:                                               ; preds = %17
  br i1 %19, label %21, label %38

21:                                               ; preds = %20
  %22 = load ptr, ptr %7, align 8, !tbaa !10
  %23 = invoke noundef nonnull align 8 dereferenceable(16) ptr @_ZN15_scoped_numeralI11mpz_managerILb0EEEcvR3mpzEv(ptr noundef nonnull align 8 dereferenceable(24) %9)
          to label %24 unwind label %34

24:                                               ; preds = %21
  %25 = load ptr, ptr %6, align 8, !tbaa !16
  %26 = invoke noundef i64 @_ZNK11hwf_manager3sigERK3hwf(ptr noundef nonnull align 8 dereferenceable(736) %14, ptr noundef nonnull align 8 dereferenceable(8) %25)
          to label %27 unwind label %34

27:                                               ; preds = %24
  %28 = or i64 %26, 4503599627370496
  invoke void @_ZN11mpq_managerILb0EE3setER3mpzm(ptr noundef nonnull align 8 dereferenceable(728) %22, ptr noundef nonnull align 8 dereferenceable(16) %23, i64 noundef %28)
          to label %29 unwind label %34

29:                                               ; preds = %27
  br label %46

30:                                               ; preds = %4
  %31 = landingpad { ptr, i32 }
          cleanup
  %32 = extractvalue { ptr, i32 } %31, 0
  store ptr %32, ptr %11, align 8
  %33 = extractvalue { ptr, i32 } %31, 1
  store i32 %33, ptr %12, align 4
  br label %91

34:                                               ; preds = %58, %55, %53, %50, %46, %44, %41, %38, %27, %24, %21, %17
  %35 = landingpad { ptr, i32 }
          cleanup
  %36 = extractvalue { ptr, i32 } %35, 0
  store ptr %36, ptr %11, align 8
  %37 = extractvalue { ptr, i32 } %35, 1
  store i32 %37, ptr %12, align 4
  br label %90

38:                                               ; preds = %20
  %39 = load ptr, ptr %7, align 8, !tbaa !10
  %40 = invoke noundef nonnull align 8 dereferenceable(16) ptr @_ZN15_scoped_numeralI11mpz_managerILb0EEEcvR3mpzEv(ptr noundef nonnull align 8 dereferenceable(24) %9)
          to label %41 unwind label %34

41:                                               ; preds = %38
  %42 = load ptr, ptr %6, align 8, !tbaa !16
  %43 = invoke noundef i64 @_ZNK11hwf_manager3sigERK3hwf(ptr noundef nonnull align 8 dereferenceable(736) %14, ptr noundef nonnull align 8 dereferenceable(8) %42)
          to label %44 unwind label %34

44:                                               ; preds = %41
  invoke void @_ZN11mpq_managerILb0EE3setER3mpzm(ptr noundef nonnull align 8 dereferenceable(728) %39, ptr noundef nonnull align 8 dereferenceable(16) %40, i64 noundef %43)
          to label %45 unwind label %34

45:                                               ; preds = %44
  br label %46

46:                                               ; preds = %45, %29
  %47 = load ptr, ptr %6, align 8, !tbaa !16
  %48 = invoke noundef zeroext i1 @_ZNK11hwf_manager3sgnERK3hwf(ptr noundef nonnull align 8 dereferenceable(736) %14, ptr noundef nonnull align 8 dereferenceable(8) %47)
          to label %49 unwind label %34

49:                                               ; preds = %46
  br i1 %48, label %50, label %55

50:                                               ; preds = %49
  %51 = load ptr, ptr %7, align 8, !tbaa !10
  %52 = invoke noundef nonnull align 8 dereferenceable(16) ptr @_ZN15_scoped_numeralI11mpz_managerILb0EEEcvR3mpzEv(ptr noundef nonnull align 8 dereferenceable(24) %9)
          to label %53 unwind label %34

53:                                               ; preds = %50
  invoke void @_ZN11mpq_managerILb0EE3negER3mpz(ptr noundef nonnull align 8 dereferenceable(728) %51, ptr noundef nonnull align 8 dereferenceable(16) %52)
          to label %54 unwind label %34

54:                                               ; preds = %53
  br label %55

55:                                               ; preds = %54, %49
  %56 = load ptr, ptr %7, align 8, !tbaa !10
  %57 = invoke noundef nonnull align 8 dereferenceable(16) ptr @_ZN15_scoped_numeralI11mpz_managerILb0EEEcvR3mpzEv(ptr noundef nonnull align 8 dereferenceable(24) %10)
          to label %58 unwind label %34

58:                                               ; preds = %55
  invoke void @_ZN11mpq_managerILb0EE3setER3mpzm(ptr noundef nonnull align 8 dereferenceable(728) %56, ptr noundef nonnull align 8 dereferenceable(16) %57, i64 noundef 4503599627370496)
          to label %59 unwind label %34

59:                                               ; preds = %58
  call void @llvm.lifetime.start.p0(i64 4, ptr %13) #3
  %60 = load ptr, ptr %6, align 8, !tbaa !16
  %61 = invoke noundef i32 @_ZNK11hwf_manager3expERK3hwf(ptr noundef nonnull align 8 dereferenceable(736) %14, ptr noundef nonnull align 8 dereferenceable(8) %60)
          to label %62 unwind label %71

62:                                               ; preds = %59
  store i32 %61, ptr %13, align 4, !tbaa !18
  %63 = load i32, ptr %13, align 4, !tbaa !18
  %64 = icmp sge i32 %63, 0
  br i1 %64, label %65, label %75

65:                                               ; preds = %62
  %66 = load ptr, ptr %7, align 8, !tbaa !10
  %67 = invoke noundef nonnull align 8 dereferenceable(16) ptr @_ZN15_scoped_numeralI11mpz_managerILb0EEEcvR3mpzEv(ptr noundef nonnull align 8 dereferenceable(24) %9)
          to label %68 unwind label %71

68:                                               ; preds = %65
  %69 = load i32, ptr %13, align 4, !tbaa !18
  invoke void @_ZN11mpz_managerILb0EE5mul2kER3mpzj(ptr noundef nonnull align 8 dereferenceable(600) %66, ptr noundef nonnull align 8 dereferenceable(16) %67, i32 noundef %69)
          to label %70 unwind label %71

70:                                               ; preds = %68
  br label %82

71:                                               ; preds = %88, %86, %82, %78, %75, %68, %65, %59
  %72 = landingpad { ptr, i32 }
          cleanup
  %73 = extractvalue { ptr, i32 } %72, 0
  store ptr %73, ptr %11, align 8
  %74 = extractvalue { ptr, i32 } %72, 1
  store i32 %74, ptr %12, align 4
  call void @llvm.lifetime.end.p0(i64 4, ptr %13) #3
  br label %90

75:                                               ; preds = %62
  %76 = load ptr, ptr %7, align 8, !tbaa !10
  %77 = invoke noundef nonnull align 8 dereferenceable(16) ptr @_ZN15_scoped_numeralI11mpz_managerILb0EEEcvR3mpzEv(ptr noundef nonnull align 8 dereferenceable(24) %10)
          to label %78 unwind label %71

78:                                               ; preds = %75
  %79 = load i32, ptr %13, align 4, !tbaa !18
  %80 = sub nsw i32 0, %79
  invoke void @_ZN11mpz_managerILb0EE5mul2kER3mpzj(ptr noundef nonnull align 8 dereferenceable(600) %76, ptr noundef nonnull align 8 dereferenceable(16) %77, i32 noundef %80)
          to label %81 unwind label %71

81:                                               ; preds = %78
  br label %82

82:                                               ; preds = %81, %70
  %83 = load ptr, ptr %7, align 8, !tbaa !10
  %84 = load ptr, ptr %8, align 8, !tbaa !26
  %85 = invoke noundef nonnull align 8 dereferenceable(16) ptr @_ZN15_scoped_numeralI11mpz_managerILb0EEEcvR3mpzEv(ptr noundef nonnull align 8 dereferenceable(24) %9)
          to label %86 unwind label %71

86:                                               ; preds = %82
  %87 = invoke noundef nonnull align 8 dereferenceable(16) ptr @_ZN15_scoped_numeralI11mpz_managerILb0EEEcvR3mpzEv(ptr noundef nonnull align 8 dereferenceable(24) %10)
          to label %88 unwind label %71

88:                                               ; preds = %86
  invoke void @_ZN11mpq_managerILb0EE3setER3mpqRK3mpzS5_(ptr noundef nonnull align 8 dereferenceable(728) %83, ptr noundef nonnull align 8 dereferenceable(32) %84, ptr noundef nonnull align 8 dereferenceable(16) %85, ptr noundef nonnull align 8 dereferenceable(16) %87)
          to label %89 unwind label %71

89:                                               ; preds = %88
  call void @llvm.lifetime.end.p0(i64 4, ptr %13) #3
  call void @_ZN15_scoped_numeralI11mpz_managerILb0EEED2Ev(ptr noundef nonnull align 8 dereferenceable(24) %10) #3
  call void @llvm.lifetime.end.p0(i64 24, ptr %10) #3
  call void @_ZN15_scoped_numeralI11mpz_managerILb0EEED2Ev(ptr noundef nonnull align 8 dereferenceable(24) %9) #3
  call void @llvm.lifetime.end.p0(i64 24, ptr %9) #3
  ret void

90:                                               ; preds = %71, %34
  call void @_ZN15_scoped_numeralI11mpz_managerILb0EEED2Ev(ptr noundef nonnull align 8 dereferenceable(24) %10) #3
  br label %91

91:                                               ; preds = %90, %30
  call void @llvm.lifetime.end.p0(i64 24, ptr %10) #3
  call void @_ZN15_scoped_numeralI11mpz_managerILb0EEED2Ev(ptr noundef nonnull align 8 dereferenceable(24) %9) #3
  call void @llvm.lifetime.end.p0(i64 24, ptr %9) #3
  br label %92

92:                                               ; preds = %91
  %93 = load ptr, ptr %11, align 8
  %94 = load i32, ptr %12, align 4
  %95 = insertvalue { ptr, i32 } poison, ptr %93, 0
  %96 = insertvalue { ptr, i32 } %95, i32 %94, 1
  resume { ptr, i32 } %96
}