; Function Attrs: mustprogress uwtable
define hidden void @_ZN11hwf_manager11to_rationalERK3hwfR11mpq_managerILb0EER3mpq(ptr nonnull readnone align 8 captures(none) %0, ptr noundef nonnull readonly align 8 captures(none) dereferenceable(8) %1, ptr noundef nonnull align 8 dereferenceable(728) %2, ptr noundef nonnull align 8 dereferenceable(32) %3) local_unnamed_addr #3 align 2 personality ptr @__gxx_personality_v0 {
  %5 = alloca %class._scoped_numeral.0, align 8
  %6 = alloca %class._scoped_numeral.0, align 8
  call void @llvm.lifetime.start.p0(i64 24, ptr nonnull %5) #24
  store ptr %2, ptr %5, align 8, !tbaa !11
  %7 = getelementptr inbounds nuw i8, ptr %5, i64 8
  store i32 0, ptr %7, align 8, !tbaa !3
  %8 = getelementptr inbounds nuw i8, ptr %5, i64 12
  store i8 0, ptr %8, align 4
  %9 = getelementptr inbounds nuw i8, ptr %5, i64 16
  store ptr null, ptr %9, align 8, !tbaa !10
  call void @llvm.lifetime.start.p0(i64 24, ptr nonnull %6) #24
  store ptr %2, ptr %6, align 8, !tbaa !11
  %10 = getelementptr inbounds nuw i8, ptr %6, i64 8
  store i32 0, ptr %10, align 8, !tbaa !3
  %11 = getelementptr inbounds nuw i8, ptr %6, i64 12
  store i8 0, ptr %11, align 4
  %12 = getelementptr inbounds nuw i8, ptr %6, i64 16
  store ptr null, ptr %12, align 8, !tbaa !10
  %13 = load i64, ptr %1, align 8, !tbaa !13
  %14 = and i64 %13, 9218868437227405312
  switch i64 %14, label %15 [
    i64 9218868437227405312, label %20
    i64 0, label %20
  ]

15:                                               ; preds = %4
  %16 = and i64 %13, 4503599627370495
  %17 = or disjoint i64 %16, 4503599627370496
  br label %.invoke

18:                                               ; preds = %.invoke, %_ZN11mpq_managerILb0EE3negER3mpz.exit, %27
  %19 = landingpad { ptr, i32 }
          cleanup
  br label %48

20:                                               ; preds = %4, %4
  %21 = and i64 %13, 4503599627370495
  %22 = icmp samesign ult i64 %21, 2147483647
  br i1 %22, label %23, label %.invoke

23:                                               ; preds = %20
  %24 = trunc i64 %13 to i32
  store i32 %24, ptr %7, align 8, !tbaa !3
  store i8 0, ptr %8, align 4
  br label %_ZN11mpq_managerILb0EE3setER3mpzm.exit

.invoke:                                          ; preds = %20, %15
  %25 = phi i64 [ %17, %15 ], [ %21, %20 ]
  invoke void @_ZN11mpz_managerILb0EE12set_big_ui64ER3mpzm(ptr noundef nonnull align 8 dereferenceable(728) %2, ptr noundef nonnull align 8 dereferenceable(16) %7, i64 noundef %25)
          to label %_ZN11mpq_managerILb0EE3setER3mpzm.exit unwind label %18

_ZN11mpq_managerILb0EE3setER3mpzm.exit:           ; preds = %.invoke, %23
  %.0.copyload.i.i28 = load i64, ptr %1, align 8
  %26 = icmp slt i64 %.0.copyload.i.i28, 0
  br i1 %26, label %27, label %_ZN11mpq_managerILb0EE3negER3mpz.exit

27:                                               ; preds = %_ZN11mpq_managerILb0EE3setER3mpzm.exit
  invoke void @_ZN11mpz_managerILb0EE3negER3mpz(ptr noundef nonnull align 8 dereferenceable(728) %2, ptr noundef nonnull align 8 dereferenceable(16) %7)
          to label %_ZN11mpq_managerILb0EE3negER3mpz.exit unwind label %18

_ZN11mpq_managerILb0EE3negER3mpz.exit:            ; preds = %27, %_ZN11mpq_managerILb0EE3setER3mpzm.exit
  invoke void @_ZN11mpz_managerILb0EE12set_big_ui64ER3mpzm(ptr noundef nonnull align 8 dereferenceable(728) %2, ptr noundef nonnull align 8 dereferenceable(16) %10, i64 noundef 4503599627370496)
          to label %_ZN11mpq_managerILb0EE3setER3mpzm.exit31 unwind label %18

_ZN11mpq_managerILb0EE3setER3mpzm.exit31:         ; preds = %_ZN11mpq_managerILb0EE3negER3mpz.exit
  %.0.copyload.i.i32 = load i64, ptr %1, align 8
  %28 = lshr i64 %.0.copyload.i.i32, 52
  %29 = trunc nuw nsw i64 %28 to i32
  %30 = and i32 %29, 2047
  %31 = icmp samesign ugt i32 %30, 1022
  %32 = sub nuw nsw i32 1023, %30
  %33 = add nsw i32 %30, -1023
  %34 = select i1 %31, ptr %7, ptr %10
  %35 = select i1 %31, i32 %33, i32 %32
  invoke void @_ZN11mpz_managerILb0EE5mul2kER3mpzj(ptr noundef nonnull align 8 dereferenceable(600) %2, ptr noundef nonnull align 8 dereferenceable(16) %34, i32 noundef %35)
          to label %38 unwind label %36

36:                                               ; preds = %_ZN11mpq_managerILb0EE3setER3mpzm.exit31, %38
  %37 = landingpad { ptr, i32 }
          cleanup
  br label %48

38:                                               ; preds = %_ZN11mpq_managerILb0EE3setER3mpzm.exit31
  invoke void @_ZN11mpq_managerILb0EE3setER3mpqRK3mpzS5_(ptr noundef nonnull align 8 dereferenceable(728) %2, ptr noundef nonnull align 8 dereferenceable(32) %3, ptr noundef nonnull align 8 dereferenceable(16) %7, ptr noundef nonnull align 8 dereferenceable(16) %10)
          to label %39 unwind label %36

39:                                               ; preds = %38
  %40 = load ptr, ptr %6, align 8, !tbaa !71
  invoke void @_ZN11mpz_managerILb0EE3delEPS0_R3mpz(ptr noundef nonnull align 8 dereferenceable(600) %40, ptr noundef nonnull align 8 dereferenceable(16) %10)
          to label %_ZN15_scoped_numeralI11mpz_managerILb0EEED2Ev.exit unwind label %41

41:                                               ; preds = %39
  %42 = landingpad { ptr, i32 }
          catch ptr null
  %43 = extractvalue { ptr, i32 } %42, 0
  call void @__clang_call_terminate(ptr %43) #28
  unreachable

_ZN15_scoped_numeralI11mpz_managerILb0EEED2Ev.exit: ; preds = %39
  call void @llvm.lifetime.end.p0(i64 24, ptr nonnull %6) #24
  %44 = load ptr, ptr %5, align 8, !tbaa !71
  invoke void @_ZN11mpz_managerILb0EE3delEPS0_R3mpz(ptr noundef nonnull align 8 dereferenceable(600) %44, ptr noundef nonnull align 8 dereferenceable(16) %7)
          to label %_ZN15_scoped_numeralI11mpz_managerILb0EEED2Ev.exit33 unwind label %45

45:                                               ; preds = %_ZN15_scoped_numeralI11mpz_managerILb0EEED2Ev.exit
  %46 = landingpad { ptr, i32 }
          catch ptr null
  %47 = extractvalue { ptr, i32 } %46, 0
  call void @__clang_call_terminate(ptr %47) #28
  unreachable

_ZN15_scoped_numeralI11mpz_managerILb0EEED2Ev.exit33: ; preds = %_ZN15_scoped_numeralI11mpz_managerILb0EEED2Ev.exit
  call void @llvm.lifetime.end.p0(i64 24, ptr nonnull %5) #24
  ret void

48:                                               ; preds = %36, %18
  %.pn = phi { ptr, i32 } [ %37, %36 ], [ %19, %18 ]
  call void @_ZN15_scoped_numeralI11mpz_managerILb0EEED2Ev(ptr noundef nonnull align 8 dereferenceable(24) %6) #24
  call void @llvm.lifetime.end.p0(i64 24, ptr nonnull %6) #24
  call void @_ZN15_scoped_numeralI11mpz_managerILb0EEED2Ev(ptr noundef nonnull align 8 dereferenceable(24) %5) #24
  call void @llvm.lifetime.end.p0(i64 24, ptr nonnull %5) #24
  resume { ptr, i32 } %.pn
}